; Function Attrs: mustprogress uwtable
define internal void @_ZNK4absl18container_internal12_GLOBAL__N_119IsSameSliceMatcherPINS_4SpanINS1_6Int128EEEE10gmock_ImplIRKS5_E10DescribeToEPSo(ptr nocapture noundef nonnull readonly align 8 dereferenceable(24) %this, ptr noundef %gmock_os) unnamed_addr #3 align 2 personality ptr @__gxx_personality_v0 {
entry:
  %ref.tmp = alloca %"class.std::__cxx11::basic_string", align 8
  call fastcc void @_ZNK4absl18container_internal12_GLOBAL__N_119IsSameSliceMatcherPINS_4SpanINS1_6Int128EEEE10gmock_ImplIRKS5_E17FormatDescriptionB5cxx11Eb(ptr noalias nonnull align 8 %ref.tmp, ptr noundef nonnull align 8 dereferenceable(24) %this, i1 noundef zeroext false)
  %call = invoke noundef nonnull align 8 dereferenceable(8) ptr @_ZStlsIcSt11char_traitsIcESaIcEERSt13basic_ostreamIT_T0_ES7_RKNSt7__cxx1112basic_stringIS4_S5_T1_EE(ptr noundef nonnull align 8 dereferenceable(8) %gmock_os, ptr noundef nonnull align 8 dereferenceable(32) %ref.tmp)
          to label %invoke.cont unwind label %lpad

invoke.cont:                                      ; preds = %entry
  call void @_ZNSt7__cxx1112basic_stringIcSt11char_traitsIcESaIcEED1Ev(ptr noundef nonnull align 8 dereferenceable(32) %ref.tmp) #21
  ret void

lpad:                                             ; preds = %entry
  %0 = landingpad { ptr, i32 }
          cleanup
  call void @_ZNSt7__cxx1112basic_stringIcSt11char_traitsIcESaIcEED1Ev(ptr noundef nonnull align 8 dereferenceable(32) %ref.tmp) #21
  resume { ptr, i32 } %0
}